; Function Attrs: nofree nounwind null_pointer_is_valid sspstrong uwtable
define hidden noundef zeroext i1 @str_to_eth(ptr noundef %0, ptr noundef %1) local_unnamed_addr #16 {
  %3 = alloca ptr, align 8
  %4 = alloca %struct._ether, align 1
  call void @llvm.lifetime.start.p0(i64 136, ptr nonnull %4) #24
  call void @llvm.lifetime.start.p0(i64 8, ptr nonnull %3) #24
  %5 = load ptr, ptr @g_ascii_table, align 8
  br label %6

6:                                                ; preds = %28, %2
  %indvars.iv.i = phi i64 [ 0, %2 ], [ %indvars.iv.next.i, %28 ]
  %.082.i = phi i8 [ 0, %2 ], [ %.1.i, %28 ]
  %.05580.i = phi ptr [ %0, %2 ], [ %29, %28 ]
  %7 = load i8, ptr %.05580.i, align 1
  %8 = zext i8 %7 to i64
  %9 = getelementptr i16, ptr %5, i64 %8
  %10 = load i16, ptr %9, align 2
  %11 = and i16 %10, 1024
  %.not.i = icmp eq i16 %11, 0
  br i1 %.not.i, label %parse_ether_address.exit.thread, label %12

12:                                               ; preds = %6
  %13 = call i64 @strtoul(ptr noundef %.05580.i, ptr noundef nonnull %3, i32 noundef 16) #24
  %14 = load ptr, ptr %3, align 8
  %15 = icmp eq ptr %14, %.05580.i
  %16 = icmp ugt i64 %13, 255
  %or.cond72.i = select i1 %15, i1 true, i1 %16
  br i1 %or.cond72.i, label %parse_ether_address.exit.thread, label %17

17:                                               ; preds = %12
  %18 = trunc nuw i64 %13 to i8
  %19 = getelementptr [8 x i8], ptr %4, i64 0, i64 %indvars.iv.i
  store i8 %18, ptr %19, align 1
  %20 = load i8, ptr %14, align 1
  switch i8 %20, label %24 [
    i8 47, label %parse_ether_address.exit.thread
    i8 0, label %21
  ]

21:                                               ; preds = %17
  %22 = trunc nuw nsw i64 %indvars.iv.i to i32
  switch i32 %22, label %parse_ether_address.exit.thread [
    i32 7, label %23
    i32 5, label %parse_ether_address.exit
  ]

23:                                               ; preds = %21
  br label %parse_ether_address.exit.thread

24:                                               ; preds = %17
  %25 = icmp eq i8 %.082.i, 0
  br i1 %25, label %26, label %27

26:                                               ; preds = %24
  switch i8 %20, label %parse_ether_address.exit.thread [
    i8 58, label %28
    i8 45, label %28
    i8 46, label %28
  ]

27:                                               ; preds = %24
  %.not63.i = icmp eq i8 %20, %.082.i
  br i1 %.not63.i, label %28, label %parse_ether_address.exit.thread

28:                                               ; preds = %27, %26, %26, %26
  %.1.i = phi i8 [ %.082.i, %27 ], [ %20, %26 ], [ %20, %26 ], [ %20, %26 ]
  %29 = getelementptr i8, ptr %14, i64 1
  %indvars.iv.next.i = add nuw nsw i64 %indvars.iv.i, 1
  %exitcond.not.i = icmp eq i64 %indvars.iv.next.i, 8
  br i1 %exitcond.not.i, label %parse_ether_address.exit.thread, label %6, !llvm.loop !53

parse_ether_address.exit.thread:                  ; preds = %27, %26, %12, %6, %17, %28, %21, %23
  %.054.i.ph = phi i1 [ false, %21 ], [ true, %23 ], [ true, %28 ], [ false, %27 ], [ false, %26 ], [ false, %12 ], [ false, %6 ], [ false, %17 ]
  call void @llvm.lifetime.end.p0(i64 8, ptr nonnull %3) #24
  br label %30

parse_ether_address.exit:                         ; preds = %21
  call void @llvm.lifetime.end.p0(i64 8, ptr nonnull %3) #24
  call void @llvm.memcpy.p0.p0.i64(ptr noundef align 1 dereferenceable(6) %1, ptr noundef nonnull align 1 dereferenceable(6) %4, i64 noundef 6, i1 noundef false) #24
  br label %30

30:                                               ; preds = %parse_ether_address.exit.thread, %parse_ether_address.exit
  %.054.i7 = phi i1 [ %.054.i.ph, %parse_ether_address.exit.thread ], [ true, %parse_ether_address.exit ]
  call void @llvm.lifetime.end.p0(i64 136, ptr nonnull %4) #24
  ret i1 %.054.i7
}